; Function Attrs: mustprogress nounwind uwtable
define void @_ZN8WasmEdge6Loader13SharedLibrary6unloadEv(ptr nocapture noundef nonnull align 8 dereferenceable(32) %0) local_unnamed_addr #0 align 2 {
  %2 = getelementptr inbounds i8, ptr %0, i64 24
  %3 = load ptr, ptr %2, align 8
  %.not = icmp eq ptr %3, null
  br i1 %.not, label %6, label %4

4:                                                ; preds = %1
  %5 = tail call i32 @dlclose(ptr noundef nonnull %3) #16
  store ptr null, ptr %2, align 8
  br label %6

6:                                                ; preds = %4, %1
  ret void
}